target datalayout = "e-m:e-p270:32:32-p271:32:32-p272:64:64-i64:64-i128:128-f80:128-n8:16:32:64-S128"
target triple = "x86_64-pc-linux-gnu"

%struct.compressionParameters = type { i32, ptr, i32, ptr, ptr, ptr, ptr, ptr, ptr, ptr, ptr }

; Function Attrs: nounwind uwtable
define internal void @LZ4_compressInitStreamHC(ptr noundef %0) #0 {
  %2 = alloca ptr, align 8
  store ptr %0, ptr %2, align 8, !tbaa !65
  %3 = load ptr, ptr %2, align 8, !tbaa !65
  %4 = getelementptr inbounds nuw %struct.compressionParameters, ptr %3, i32 0, i32 3
  store ptr null, ptr %4, align 8, !tbaa !72
  %5 = load ptr, ptr %2, align 8, !tbaa !65
  %6 = getelementptr inbounds nuw %struct.compressionParameters, ptr %5, i32 0, i32 4
  store ptr null, ptr %6, align 8, !tbaa !73
  %7 = call ptr @LZ4_createStreamHC()
  %8 = load ptr, ptr %2, align 8, !tbaa !65
  %9 = getelementptr inbounds nuw %struct.compressionParameters, ptr %8, i32 0, i32 5
  store ptr %7, ptr %9, align 8, !tbaa !74
  %10 = call ptr @LZ4_createStreamHC()
  %11 = load ptr, ptr %2, align 8, !tbaa !65
  %12 = getelementptr inbounds nuw %struct.compressionParameters, ptr %11, i32 0, i32 6
  store ptr %10, ptr %12, align 8, !tbaa !75
  %13 = load ptr, ptr %2, align 8, !tbaa !65
  %14 = getelementptr inbounds nuw %struct.compressionParameters, ptr %13, i32 0, i32 6
  %15 = load ptr, ptr %14, align 8, !tbaa !75
  %16 = load ptr, ptr %2, align 8, !tbaa !65
  %17 = getelementptr inbounds nuw %struct.compressionParameters, ptr %16, i32 0, i32 0
  %18 = load i32, ptr %17, align 8, !tbaa !67
  call void @LZ4_resetStreamHC_fast(ptr noundef %15, i32 noundef %18)
  %19 = load ptr, ptr %2, align 8, !tbaa !65
  %20 = getelementptr inbounds nuw %struct.compressionParameters, ptr %19, i32 0, i32 6
  %21 = load ptr, ptr %20, align 8, !tbaa !75
  %22 = load ptr, ptr %2, align 8, !tbaa !65
  %23 = getelementptr inbounds nuw %struct.compressionParameters, ptr %22, i32 0, i32 1
  %24 = load ptr, ptr %23, align 8, !tbaa !68
  %25 = load ptr, ptr %2, align 8, !tbaa !65
  %26 = getelementptr inbounds nuw %struct.compressionParameters, ptr %25, i32 0, i32 2
  %27 = load i32, ptr %26, align 8, !tbaa !69
  %28 = call i32 @LZ4_loadDictHC(ptr noundef %21, ptr noundef %24, i32 noundef %27)
  ret void
}