; Function Attrs: nounwind uwtable
define internal void @LZ4_compressInitStreamHC(ptr noundef captures(none) initializes((24, 56)) %0) #3 {
  %2 = getelementptr inbounds nuw i8, ptr %0, i64 24
  tail call void @llvm.memset.p0.i64(ptr noundef nonnull align 8 dereferenceable(16) %2, i8 0, i64 16, i1 false)
  %3 = tail call ptr @LZ4_createStreamHC() #19
  %4 = getelementptr inbounds nuw i8, ptr %0, i64 40
  store ptr %3, ptr %4, align 8, !tbaa !65
  %5 = tail call ptr @LZ4_createStreamHC() #19
  %6 = getelementptr inbounds nuw i8, ptr %0, i64 48
  store ptr %5, ptr %6, align 8, !tbaa !66
  %7 = load i32, ptr %0, align 8, !tbaa !23
  tail call void @LZ4_resetStreamHC_fast(ptr noundef %5, i32 noundef %7) #19
  %8 = load ptr, ptr %6, align 8, !tbaa !66
  %9 = getelementptr inbounds nuw i8, ptr %0, i64 8
  %10 = load ptr, ptr %9, align 8, !tbaa !27
  %11 = getelementptr inbounds nuw i8, ptr %0, i64 16
  %12 = load i32, ptr %11, align 8, !tbaa !28
  %13 = tail call i32 @LZ4_loadDictHC(ptr noundef %8, ptr noundef %10, i32 noundef %12) #19
  ret void
}